target datalayout = "e-m:e-p270:32:32-p271:32:32-p272:64:64-i64:64-i128:128-f80:128-n8:16:32:64-S128"
target triple = "x86_64-pc-linux-gnu"

%struct.AVFilterContext = type { ptr, ptr, ptr, ptr, ptr, i32, ptr, ptr, i32, ptr, ptr, i32, i32, ptr, ptr, ptr, ptr, i32, ptr, i32, i32 }
%struct.GEQContext = type { ptr, [4 x [32 x ptr]], [7 x ptr], ptr, ptr, ptr, ptr, [8 x double], i32, i32, i32, i32, i32, i32, [4 x ptr], [4 x i32] }

; Function Attrs: cold nounwind optsize uwtable
define internal void @geq_uninit(ptr noundef %0) #0 {
  %2 = alloca ptr, align 8
  %3 = alloca i32, align 4
  %4 = alloca ptr, align 8
  %5 = alloca i32, align 4
  store ptr %0, ptr %2, align 8, !tbaa !4
  call void @llvm.lifetime.start.p0(i64 4, ptr %3) #11
  call void @llvm.lifetime.start.p0(i64 8, ptr %4) #11
  %6 = load ptr, ptr %2, align 8, !tbaa !4
  %7 = getelementptr inbounds nuw %struct.AVFilterContext, ptr %6, i32 0, i32 9
  %8 = load ptr, ptr %7, align 8, !tbaa !9
  store ptr %8, ptr %4, align 8, !tbaa !22
  store i32 0, ptr %3, align 4, !tbaa !24
  br label %9

9:                                                ; preds = %31, %1
  %10 = load i32, ptr %3, align 4, !tbaa !24
  %11 = icmp slt i32 %10, 4
  br i1 %11, label %12, label %34

12:                                               ; preds = %9
  call void @llvm.lifetime.start.p0(i64 4, ptr %5) #11
  store i32 0, ptr %5, align 4, !tbaa !24
  br label %13

13:                                               ; preds = %27, %12
  %14 = load i32, ptr %5, align 4, !tbaa !24
  %15 = icmp slt i32 %14, 32
  br i1 %15, label %17, label %16

16:                                               ; preds = %13
  call void @llvm.lifetime.end.p0(i64 4, ptr %5) #11
  br label %30

17:                                               ; preds = %13
  %18 = load ptr, ptr %4, align 8, !tbaa !22
  %19 = getelementptr inbounds nuw %struct.GEQContext, ptr %18, i32 0, i32 1
  %20 = load i32, ptr %3, align 4, !tbaa !24
  %21 = sext i32 %20 to i64
  %22 = getelementptr inbounds [4 x [32 x ptr]], ptr %19, i64 0, i64 %21
  %23 = load i32, ptr %5, align 4, !tbaa !24
  %24 = sext i32 %23 to i64
  %25 = getelementptr inbounds [32 x ptr], ptr %22, i64 0, i64 %24
  %26 = load ptr, ptr %25, align 8, !tbaa !37
  call void @av_expr_free(ptr noundef %26)
  br label %27

27:                                               ; preds = %17
  %28 = load i32, ptr %5, align 4, !tbaa !24
  %29 = add nsw i32 %28, 1
  store i32 %29, ptr %5, align 4, !tbaa !24
  br label %13, !llvm.loop !40

30:                                               ; preds = %16
  br label %31

31:                                               ; preds = %30
  %32 = load i32, ptr %3, align 4, !tbaa !24
  %33 = add nsw i32 %32, 1
  store i32 %33, ptr %3, align 4, !tbaa !24
  br label %9, !llvm.loop !41

34:                                               ; preds = %9
  store i32 0, ptr %3, align 4, !tbaa !24
  br label %35

35:                                               ; preds = %41, %34
  %36 = load i32, ptr %3, align 4, !tbaa !24
  %37 = icmp slt i32 %36, 4
  br i1 %37, label %38, label %44

38:                                               ; preds = %35
  %39 = load ptr, ptr %4, align 8, !tbaa !22
  %40 = getelementptr inbounds nuw %struct.GEQContext, ptr %39, i32 0, i32 14
  call void @av_freep(ptr noundef %40)
  br label %41

41:                                               ; preds = %38
  %42 = load i32, ptr %3, align 4, !tbaa !24
  %43 = add nsw i32 %42, 1
  store i32 %43, ptr %3, align 4, !tbaa !24
  br label %35, !llvm.loop !42

44:                                               ; preds = %35
  call void @llvm.lifetime.end.p0(i64 8, ptr %4) #11
  call void @llvm.lifetime.end.p0(i64 4, ptr %3) #11
  ret void
}