; Function Attrs: cold nounwind optsize uwtable
define internal void @geq_uninit(ptr noundef readonly captures(none) %0) #0 {
  %2 = getelementptr inbounds nuw i8, ptr %0, i64 72
  %3 = load ptr, ptr %2, align 8, !tbaa !4
  %4 = getelementptr inbounds nuw i8, ptr %3, i64 8
  br label %.preheader11

.preheader11:                                     ; preds = %1, %6
  %indvars.iv16 = phi i64 [ 0, %1 ], [ %indvars.iv.next17, %6 ]
  br label %7

.preheader:                                       ; preds = %6
  %5 = getelementptr inbounds nuw i8, ptr %3, i64 1208
  br label %10

6:                                                ; preds = %7
  %indvars.iv.next17 = add nuw nsw i64 %indvars.iv16, 1
  %exitcond19.not = icmp eq i64 %indvars.iv.next17, 4
  br i1 %exitcond19.not, label %.preheader, label %.preheader11, !llvm.loop !34

7:                                                ; preds = %.preheader11, %7
  %indvars.iv = phi i64 [ 0, %.preheader11 ], [ %indvars.iv.next, %7 ]
  %8 = getelementptr inbounds nuw [4 x [32 x ptr]], ptr %4, i64 0, i64 %indvars.iv16, i64 %indvars.iv
  %9 = load ptr, ptr %8, align 8, !tbaa !30
  tail call void @av_expr_free(ptr noundef %9) #13
  %indvars.iv.next = add nuw nsw i64 %indvars.iv, 1
  %exitcond.not = icmp eq i64 %indvars.iv.next, 32
  br i1 %exitcond.not, label %6, label %7, !llvm.loop !35

10:                                               ; preds = %.preheader, %10
  %.114 = phi i32 [ 0, %.preheader ], [ %11, %10 ]
  tail call void @av_freep(ptr noundef nonnull %5) #13
  %11 = add nuw nsw i32 %.114, 1
  %exitcond20.not = icmp eq i32 %11, 4
  br i1 %exitcond20.not, label %12, label %10, !llvm.loop !36

12:                                               ; preds = %10
  ret void
}